target datalayout = "e-m:e-p270:32:32-p271:32:32-p272:64:64-i64:64-i128:128-f80:128-n8:16:32:64-S128"
target triple = "x86_64-pc-linux-gnu"

; Function Attrs: mustprogress nounwind uwtable
define internal noundef i32 @_ZN6icu_7712_GLOBAL__N_112monthsInYearEi(i32 noundef %0) #3 {
  %2 = alloca i32, align 4
  store i32 %0, ptr %2, align 4, !tbaa !15
  %3 = load i32, ptr %2, align 4, !tbaa !15
  %4 = call noundef signext i8 @_ZN6icu_7714HebrewCalendar10isLeapYearEi(i32 noundef %3)
  %5 = icmp ne i8 %4, 0
  %6 = select i1 %5, i32 13, i32 12
  ret i32 %6
}

; Function Attrs: mustprogress nounwind uwtable
define noundef signext i8 @_ZN6icu_7714HebrewCalendar10isLeapYearEi(i32 noundef %0) #3 align 2 {
  %2 = alloca i32, align 4
  %3 = alloca i64, align 8
  store i32 %0, ptr %2, align 4, !tbaa !15
  call void @llvm.lifetime.start.p0(i64 8, ptr %3) #11
  %4 = load i32, ptr %2, align 4, !tbaa !15
  %5 = sext i32 %4 to i64
  %6 = mul nsw i64 %5, 12
  %7 = add nsw i64 %6, 17
  %8 = srem i64 %7, 19
  store i64 %8, ptr %3, align 8, !tbaa !19
  %9 = load i64, ptr %3, align 8, !tbaa !19
  %10 = load i64, ptr %3, align 8, !tbaa !19
  %11 = icmp slt i64 %10, 0
  %12 = select i1 %11, i32 -7, i32 12
  %13 = sext i32 %12 to i64
  %14 = icmp sge i64 %9, %13
  %15 = zext i1 %14 to i8
  call void @llvm.lifetime.end.p0(i64 8, ptr %3) #11
  ret i8 %15
}

; Function Attrs: inlinehint mustprogress nounwind uwtable
define internal noundef signext i8 @_ZL9U_FAILURE10UErrorCode(i32 noundef %0) #4 {
  %2 = alloca i32, align 4
  store i32 %0, ptr %2, align 4, !tbaa !17
  %3 = load i32, ptr %2, align 4, !tbaa !17
  %4 = icmp sgt i32 %3, 0
  %5 = zext i1 %4 to i8
  ret i8 %5
}

; Function Attrs: mustprogress uwtable
define void @_ZN6icu_7714HebrewCalendar4rollE19UCalendarDateFieldsiR10UErrorCode(ptr noundef nonnull align 8 dereferenceable(192) %0, i32 noundef %1, i32 noundef %2, ptr noundef nonnull align 4 dereferenceable(4) %3) unnamed_addr #0 align 2 {
  %5 = alloca ptr, align 8
  %6 = alloca i32, align 4
  %7 = alloca i32, align 4
  %8 = alloca ptr, align 8
  %9 = alloca i32, align 4
  %10 = alloca i32, align 4
  %11 = alloca i8, align 1
  %12 = alloca i32, align 4
  %13 = alloca i32, align 4
  store ptr %0, ptr %5, align 8, !tbaa !3
  store i32 %1, ptr %6, align 4, !tbaa !13
  store i32 %2, ptr %7, align 4, !tbaa !15
  store ptr %3, ptr %8, align 8, !tbaa !10
  %14 = load ptr, ptr %5, align 8
  %15 = load ptr, ptr %8, align 8, !tbaa !10
  %16 = load i32, ptr %15, align 4, !tbaa !17
  %17 = call noundef signext i8 @_ZL9U_FAILURE10UErrorCode(i32 noundef %16)
  %18 = icmp ne i8 %17, 0
  br i1 %18, label %19, label %20

19:                                               ; preds = %4
  br label %76

20:                                               ; preds = %4
  %21 = load i32, ptr %6, align 4, !tbaa !13
  switch i32 %21, label %72 [
    i32 2, label %22
    i32 23, label %22
  ]

22:                                               ; preds = %20, %20
  call void @llvm.lifetime.start.p0(i64 4, ptr %9) #11
  %23 = load ptr, ptr %8, align 8, !tbaa !10
  %24 = call noundef i32 @_ZNK6icu_778Calendar3getE19UCalendarDateFieldsR10UErrorCode(ptr noundef nonnull align 8 dereferenceable(192) %14, i32 noundef 2, ptr noundef nonnull align 4 dereferenceable(4) %23)
  store i32 %24, ptr %9, align 4, !tbaa !15
  call void @llvm.lifetime.start.p0(i64 4, ptr %10) #11
  %25 = load ptr, ptr %8, align 8, !tbaa !10
  %26 = call noundef i32 @_ZNK6icu_778Calendar3getE19UCalendarDateFieldsR10UErrorCode(ptr noundef nonnull align 8 dereferenceable(192) %14, i32 noundef 1, ptr noundef nonnull align 4 dereferenceable(4) %25)
  store i32 %26, ptr %10, align 4, !tbaa !15
  call void @llvm.lifetime.start.p0(i64 1, ptr %11) #11
  %27 = load i32, ptr %10, align 4, !tbaa !15
  %28 = call noundef signext i8 @_ZN6icu_7714HebrewCalendar10isLeapYearEi(i32 noundef %27)
  store i8 %28, ptr %11, align 1, !tbaa !21
  call void @llvm.lifetime.start.p0(i64 4, ptr %12) #11
  %29 = load i32, ptr %10, align 4, !tbaa !15
  %30 = call noundef i32 @_ZN6icu_7712_GLOBAL__N_112monthsInYearEi(i32 noundef %29)
  store i32 %30, ptr %12, align 4, !tbaa !15
  call void @llvm.lifetime.start.p0(i64 4, ptr %13) #11
  %31 = load i32, ptr %9, align 4, !tbaa !15
  %32 = load i32, ptr %7, align 4, !tbaa !15
  %33 = load i32, ptr %12, align 4, !tbaa !15
  %34 = srem i32 %32, %33
  %35 = add nsw i32 %31, %34
  store i32 %35, ptr %13, align 4, !tbaa !15
  %36 = load i8, ptr %11, align 1, !tbaa !21
  %37 = icmp ne i8 %36, 0
  br i1 %37, label %64, label %38

38:                                               ; preds = %22
  %39 = load i32, ptr %7, align 4, !tbaa !15
  %40 = icmp sgt i32 %39, 0
  br i1 %40, label %41, label %50

41:                                               ; preds = %38
  %42 = load i32, ptr %9, align 4, !tbaa !15
  %43 = icmp slt i32 %42, 5
  br i1 %43, label %44, label %50

44:                                               ; preds = %41
  %45 = load i32, ptr %13, align 4, !tbaa !15
  %46 = icmp sge i32 %45, 5
  br i1 %46, label %47, label %50

47:                                               ; preds = %44
  %48 = load i32, ptr %13, align 4, !tbaa !15
  %49 = add nsw i32 %48, 1
  store i32 %49, ptr %13, align 4, !tbaa !15
  br label %63

50:                                               ; preds = %44, %41, %38
  %51 = load i32, ptr %7, align 4, !tbaa !15
  %52 = icmp slt i32 %51, 0
  br i1 %52, label %53, label %62

53:                                               ; preds = %50
  %54 = load i32, ptr %9, align 4, !tbaa !15
  %55 = icmp sgt i32 %54, 5
  br i1 %55, label %56, label %62

56:                                               ; preds = %53
  %57 = load i32, ptr %13, align 4, !tbaa !15
  %58 = icmp sle i32 %57, 5
  br i1 %58, label %59, label %62

59:                                               ; preds = %56
  %60 = load i32, ptr %13, align 4, !tbaa !15
  %61 = add nsw i32 %60, -1
  store i32 %61, ptr %13, align 4, !tbaa !15
  br label %62

62:                                               ; preds = %59, %56, %53, %50
  br label %63

63:                                               ; preds = %62, %47
  br label %64

64:                                               ; preds = %63, %22
  %65 = load i32, ptr %13, align 4, !tbaa !15
  %66 = add nsw i32 %65, 13
  %67 = srem i32 %66, 13
  call void @_ZN6icu_778Calendar3setE19UCalendarDateFieldsi(ptr noundef nonnull align 8 dereferenceable(192) %14, i32 noundef 2, i32 noundef %67)
  %68 = load ptr, ptr %8, align 8, !tbaa !10
  %69 = load ptr, ptr %14, align 8, !tbaa !11
  %70 = getelementptr inbounds ptr, ptr %69, i64 50
  %71 = load ptr, ptr %70, align 8
  call void %71(ptr noundef nonnull align 8 dereferenceable(192) %14, i32 noundef 5, ptr noundef nonnull align 4 dereferenceable(4) %68)
  call void @llvm.lifetime.end.p0(i64 4, ptr %13) #11
  call void @llvm.lifetime.end.p0(i64 4, ptr %12) #11
  call void @llvm.lifetime.end.p0(i64 1, ptr %11) #11
  call void @llvm.lifetime.end.p0(i64 4, ptr %10) #11
  call void @llvm.lifetime.end.p0(i64 4, ptr %9) #11
  br label %76

72:                                               ; preds = %20
  %73 = load i32, ptr %6, align 4, !tbaa !13
  %74 = load i32, ptr %7, align 4, !tbaa !15
  %75 = load ptr, ptr %8, align 8, !tbaa !10
  call void @_ZN6icu_778Calendar4rollE19UCalendarDateFieldsiR10UErrorCode(ptr noundef nonnull align 8 dereferenceable(192) %14, i32 noundef %73, i32 noundef %74, ptr noundef nonnull align 4 dereferenceable(4) %75)
  br label %76

76:                                               ; preds = %19, %64, %72
  ret void
}