; Function Attrs: mustprogress uwtable
define void @_ZN6icu_7714HebrewCalendar4rollE19UCalendarDateFieldsiR10UErrorCode(ptr noundef nonnull align 8 dereferenceable(192) %0, i32 noundef %1, i32 noundef %2, ptr noundef nonnull align 4 dereferenceable(4) %3) unnamed_addr #0 align 2 {
  %5 = load i32, ptr %3, align 4, !tbaa !6
  %6 = icmp slt i32 %5, 1
  br i1 %6, label %7, label %38

7:                                                ; preds = %4
  switch i32 %1, label %37 [
    i32 2, label %8
    i32 23, label %8
  ]

8:                                                ; preds = %7, %7
  %9 = tail call noundef i32 @_ZNK6icu_778Calendar3getE19UCalendarDateFieldsR10UErrorCode(ptr noundef nonnull align 8 dereferenceable(192) %0, i32 noundef 2, ptr noundef nonnull align 4 dereferenceable(4) %3)
  %10 = tail call noundef i32 @_ZNK6icu_778Calendar3getE19UCalendarDateFieldsR10UErrorCode(ptr noundef nonnull align 8 dereferenceable(192) %0, i32 noundef 1, ptr noundef nonnull align 4 dereferenceable(4) %3)
  %11 = sext i32 %10 to i64
  %12 = mul nsw i64 %11, 12
  %13 = add nsw i64 %12, 17
  %14 = srem i64 %13, 19
  %15 = icmp slt i64 %14, 0
  %16 = select i1 %15, i64 -7, i64 12
  %.not = icmp slt i64 %14, %16
  %17 = select i1 %.not, i32 12, i32 13
  %18 = srem i32 %2, %17
  %19 = add nsw i32 %18, %9
  br i1 %.not, label %20, label %31

20:                                               ; preds = %8
  %21 = icmp sgt i32 %2, 0
  %22 = icmp slt i32 %9, 5
  %or.cond = and i1 %21, %22
  %23 = icmp sgt i32 %19, 4
  %or.cond3 = select i1 %or.cond, i1 %23, i1 false
  br i1 %or.cond3, label %24, label %26

24:                                               ; preds = %20
  %25 = add nuw nsw i32 %19, 1
  br label %31

26:                                               ; preds = %20
  %27 = icmp slt i32 %2, 0
  %28 = icmp sgt i32 %9, 5
  %or.cond5 = and i1 %27, %28
  %29 = icmp slt i32 %19, 6
  %or.cond7 = select i1 %or.cond5, i1 %29, i1 false
  %30 = sext i1 %or.cond7 to i32
  %spec.select = add nsw i32 %19, %30
  br label %31

31:                                               ; preds = %26, %24, %8
  %.0 = phi i32 [ %19, %8 ], [ %25, %24 ], [ %spec.select, %26 ]
  %32 = add nsw i32 %.0, 13
  %33 = srem i32 %32, 13
  tail call void @_ZN6icu_778Calendar3setE19UCalendarDateFieldsi(ptr noundef nonnull align 8 dereferenceable(192) %0, i32 noundef 2, i32 noundef %33)
  %34 = load ptr, ptr %0, align 8, !tbaa !3
  %35 = getelementptr inbounds nuw i8, ptr %34, i64 400
  %36 = load ptr, ptr %35, align 8
  tail call void %36(ptr noundef nonnull align 8 dereferenceable(192) %0, i32 noundef 5, ptr noundef nonnull align 4 dereferenceable(4) %3)
  br label %38

37:                                               ; preds = %7
  tail call void @_ZN6icu_778Calendar4rollE19UCalendarDateFieldsiR10UErrorCode(ptr noundef nonnull align 8 dereferenceable(192) %0, i32 noundef %1, i32 noundef %2, ptr noundef nonnull align 4 dereferenceable(4) %3)
  br label %38

38:                                               ; preds = %4, %37, %31
  ret void
}